target datalayout = "e-m:e-p270:32:32-p271:32:32-p272:64:64-i64:64-i128:128-f80:128-n8:16:32:64-S128"
target triple = "x86_64-pc-linux-gnu"

%struct.text_import_info_t = type { ptr, ptr, i32, %struct.anon, %struct.anon.0, ptr, i32, ptr, i32, i32, i8, %union.anon, %union.anon.1, i32, i32, i32, i32, i32, ptr, i32, i32, i32 }
%struct.anon = type { ptr, i32, i8, i8, i8 }
%struct.anon.0 = type { ptr, ptr, i32, ptr, ptr }
%union.anon = type { i32, [12 x i8] }
%union.anon.1 = type { i32, [12 x i8] }

@packet_buf = internal global ptr null, align 8
@curr_offset = internal global i32 0, align 4
@info_p = internal global ptr null, align 8

; Function Attrs: null_pointer_is_valid sspstrong uwtable
define internal i32 @write_byte(ptr noundef %0) #0 {
  %2 = alloca i32, align 4
  %3 = alloca ptr, align 8
  %4 = alloca i32, align 4
  %5 = alloca i32, align 4
  store ptr %0, ptr %3, align 8
  call void @llvm.lifetime.start.p0(i64 4, ptr %4) #15
  %6 = load ptr, ptr %3, align 8
  %7 = call i32 @parse_num(ptr noundef %6, i32 noundef 0, ptr noundef %4)
  %8 = icmp ne i32 %7, 0
  br i1 %8, label %9, label %10

9:                                                ; preds = %1
  store i32 1, ptr %2, align 4
  store i32 1, ptr %5, align 4
  br label %30

10:                                               ; preds = %1
  %11 = load i32, ptr %4, align 4
  %12 = trunc i32 %11 to i8
  %13 = load ptr, ptr @packet_buf, align 8
  %14 = load i32, ptr @curr_offset, align 4
  %15 = zext i32 %14 to i64
  %16 = getelementptr i8, ptr %13, i64 %15
  store i8 %12, ptr %16, align 1
  %17 = load i32, ptr @curr_offset, align 4
  %18 = add i32 %17, 1
  store i32 %18, ptr @curr_offset, align 4
  %19 = load i32, ptr @curr_offset, align 4
  %20 = load ptr, ptr @info_p, align 8
  %21 = getelementptr inbounds nuw %struct.text_import_info_t, ptr %20, i32 0, i32 19
  %22 = load i32, ptr %21, align 8
  %23 = icmp uge i32 %19, %22
  br i1 %23, label %24, label %29

24:                                               ; preds = %10
  %25 = call i32 @start_new_packet(i1 noundef zeroext true)
  %26 = icmp ne i32 %25, 0
  br i1 %26, label %27, label %28

27:                                               ; preds = %24
  store i32 1, ptr %2, align 4
  store i32 1, ptr %5, align 4
  br label %30

28:                                               ; preds = %24
  br label %29

29:                                               ; preds = %28, %10
  store i32 0, ptr %2, align 4
  store i32 1, ptr %5, align 4
  br label %30

30:                                               ; preds = %29, %27, %9
  call void @llvm.lifetime.end.p0(i64 4, ptr %4) #15
  %31 = load i32, ptr %2, align 4
  ret i32 %31
}