; Function Attrs: null_pointer_is_valid sspstrong uwtable
define internal fastcc range(i32 0, 2) i32 @write_byte(ptr noundef %0) unnamed_addr #0 {
  %2 = alloca i32, align 4
  call void @llvm.lifetime.start.p0(i64 4, ptr nonnull %2) #18
  %3 = call fastcc i32 @parse_num(ptr noundef %0, i32 noundef 0, ptr noundef nonnull %2)
  %.not = icmp eq i32 %3, 0
  br i1 %.not, label %4, label %18

4:                                                ; preds = %1
  %5 = load i32, ptr %2, align 4
  %6 = trunc i32 %5 to i8
  %7 = load ptr, ptr @packet_buf, align 8
  %8 = load i32, ptr @curr_offset, align 4
  %9 = zext i32 %8 to i64
  %10 = getelementptr i8, ptr %7, i64 %9
  store i8 %6, ptr %10, align 1
  %11 = add i32 %8, 1
  store i32 %11, ptr @curr_offset, align 4
  %12 = load ptr, ptr @info_p, align 8
  %13 = getelementptr inbounds nuw i8, ptr %12, i64 176
  %14 = load i32, ptr %13, align 8
  %.not1 = icmp ult i32 %11, %14
  br i1 %.not1, label %17, label %15

15:                                               ; preds = %4
  %16 = tail call fastcc i32 @start_new_packet(i1 noundef zeroext true)
  %.not2 = icmp eq i32 %16, 0
  br i1 %.not2, label %17, label %18

17:                                               ; preds = %15, %4
  br label %18

18:                                               ; preds = %15, %1, %17
  %.0 = phi i32 [ 0, %17 ], [ 1, %1 ], [ 1, %15 ]
  call void @llvm.lifetime.end.p0(i64 4, ptr nonnull %2) #18
  ret i32 %.0
}